target datalayout = "e-m:e-p270:32:32-p271:32:32-p272:64:64-i64:64-i128:128-f80:128-n8:16:32:64-S128"
target triple = "x86_64-pc-linux-gnu"

%struct.Vec_Int_t_ = type { i32, i32, ptr }

; Function Attrs: inlinehint nounwind uwtable
define internal i32 @Abc_LitNot(i32 noundef %0) #2 {
  %2 = alloca i32, align 4
  store i32 %0, ptr %2, align 4, !tbaa !17
  %3 = load i32, ptr %2, align 4, !tbaa !17
  %4 = xor i32 %3, 1
  ret i32 %4
}

; Function Attrs: inlinehint nounwind uwtable
define internal i32 @Vec_IntEntry(ptr noundef %0, i32 noundef %1) #2 {
  %3 = alloca ptr, align 8
  %4 = alloca i32, align 4
  store ptr %0, ptr %3, align 8, !tbaa !25
  store i32 %1, ptr %4, align 4, !tbaa !17
  %5 = load ptr, ptr %3, align 8, !tbaa !25
  %6 = getelementptr inbounds nuw %struct.Vec_Int_t_, ptr %5, i32 0, i32 2
  %7 = load ptr, ptr %6, align 8, !tbaa !29
  %8 = load i32, ptr %4, align 4, !tbaa !17
  %9 = sext i32 %8 to i64
  %10 = getelementptr inbounds i32, ptr %7, i64 %9
  %11 = load i32, ptr %10, align 4, !tbaa !17
  ret i32 %11
}

; Function Attrs: nounwind uwtable
define i32 @Gia_ManSopToAig(ptr noundef %0, ptr noundef %1, ptr noundef %2) #0 {
  %4 = alloca ptr, align 8
  %5 = alloca ptr, align 8
  %6 = alloca ptr, align 8
  %7 = alloca i32, align 4
  %8 = alloca i32, align 4
  %9 = alloca i32, align 4
  %10 = alloca i32, align 4
  %11 = alloca i32, align 4
  %12 = alloca ptr, align 8
  store ptr %0, ptr %4, align 8, !tbaa !3
  store ptr %1, ptr %5, align 8, !tbaa !23
  store ptr %2, ptr %6, align 8, !tbaa !25
  call void @llvm.lifetime.start.p0(i64 4, ptr %7) #11
  call void @llvm.lifetime.start.p0(i64 4, ptr %8) #11
  call void @llvm.lifetime.start.p0(i64 4, ptr %9) #11
  call void @llvm.lifetime.start.p0(i64 4, ptr %10) #11
  call void @llvm.lifetime.start.p0(i64 4, ptr %11) #11
  call void @llvm.lifetime.start.p0(i64 8, ptr %12) #11
  %13 = load ptr, ptr %5, align 8, !tbaa !23
  %14 = call i32 @Kit_PlaGetVarNum(ptr noundef %13)
  store i32 %14, ptr %11, align 4, !tbaa !17
  store i32 0, ptr %9, align 4, !tbaa !17
  %15 = load ptr, ptr %5, align 8, !tbaa !23
  store ptr %15, ptr %12, align 8, !tbaa !23
  br label %16

16:                                               ; preds = %71, %3
  %17 = load ptr, ptr %12, align 8, !tbaa !23
  %18 = load i8, ptr %17, align 1, !tbaa !12
  %19 = icmp ne i8 %18, 0
  br i1 %19, label %20, label %77

20:                                               ; preds = %16
  store i32 1, ptr %8, align 4, !tbaa !17
  store i32 0, ptr %7, align 4, !tbaa !17
  br label %21

21:                                               ; preds = %63, %20
  %22 = load ptr, ptr %12, align 8, !tbaa !23
  %23 = load i32, ptr %7, align 4, !tbaa !17
  %24 = sext i32 %23 to i64
  %25 = getelementptr inbounds i8, ptr %22, i64 %24
  %26 = load i8, ptr %25, align 1, !tbaa !12
  %27 = sext i8 %26 to i32
  %28 = icmp ne i32 %27, 32
  br i1 %28, label %29, label %37

29:                                               ; preds = %21
  %30 = load ptr, ptr %12, align 8, !tbaa !23
  %31 = load i32, ptr %7, align 4, !tbaa !17
  %32 = sext i32 %31 to i64
  %33 = getelementptr inbounds i8, ptr %30, i64 %32
  %34 = load i8, ptr %33, align 1, !tbaa !12
  %35 = sext i8 %34 to i32
  store i32 %35, ptr %10, align 4, !tbaa !17
  %36 = icmp ne i32 %35, 0
  br label %37

37:                                               ; preds = %29, %21
  %38 = phi i1 [ false, %21 ], [ %36, %29 ]
  br i1 %38, label %39, label %66

39:                                               ; preds = %37
  %40 = load i32, ptr %10, align 4, !tbaa !17
  %41 = icmp eq i32 %40, 49
  br i1 %41, label %42, label %49

42:                                               ; preds = %39
  %43 = load ptr, ptr %4, align 8, !tbaa !3
  %44 = load i32, ptr %8, align 4, !tbaa !17
  %45 = load ptr, ptr %6, align 8, !tbaa !25
  %46 = load i32, ptr %7, align 4, !tbaa !17
  %47 = call i32 @Vec_IntEntry(ptr noundef %45, i32 noundef %46)
  %48 = call i32 @Gia_ManHashAnd(ptr noundef %43, i32 noundef %44, i32 noundef %47)
  store i32 %48, ptr %8, align 4, !tbaa !17
  br label %62

49:                                               ; preds = %39
  %50 = load i32, ptr %10, align 4, !tbaa !17
  %51 = icmp eq i32 %50, 48
  br i1 %51, label %52, label %60

52:                                               ; preds = %49
  %53 = load ptr, ptr %4, align 8, !tbaa !3
  %54 = load i32, ptr %8, align 4, !tbaa !17
  %55 = load ptr, ptr %6, align 8, !tbaa !25
  %56 = load i32, ptr %7, align 4, !tbaa !17
  %57 = call i32 @Vec_IntEntry(ptr noundef %55, i32 noundef %56)
  %58 = call i32 @Abc_LitNot(i32 noundef %57)
  %59 = call i32 @Gia_ManHashAnd(ptr noundef %53, i32 noundef %54, i32 noundef %58)
  store i32 %59, ptr %8, align 4, !tbaa !17
  br label %61

60:                                               ; preds = %49
  br label %61

61:                                               ; preds = %60, %52
  br label %62

62:                                               ; preds = %61, %42
  br label %63

63:                                               ; preds = %62
  %64 = load i32, ptr %7, align 4, !tbaa !17
  %65 = add nsw i32 %64, 1
  store i32 %65, ptr %7, align 4, !tbaa !17
  br label %21, !llvm.loop !27

66:                                               ; preds = %37
  %67 = load ptr, ptr %4, align 8, !tbaa !3
  %68 = load i32, ptr %9, align 4, !tbaa !17
  %69 = load i32, ptr %8, align 4, !tbaa !17
  %70 = call i32 @Gia_ManHashOr(ptr noundef %67, i32 noundef %68, i32 noundef %69)
  store i32 %70, ptr %9, align 4, !tbaa !17
  br label %71

71:                                               ; preds = %66
  %72 = load i32, ptr %11, align 4, !tbaa !17
  %73 = add nsw i32 %72, 3
  %74 = load ptr, ptr %12, align 8, !tbaa !23
  %75 = sext i32 %73 to i64
  %76 = getelementptr inbounds i8, ptr %74, i64 %75
  store ptr %76, ptr %12, align 8, !tbaa !23
  br label %16, !llvm.loop !28

77:                                               ; preds = %16
  %78 = load ptr, ptr %5, align 8, !tbaa !23
  %79 = call i32 @Kit_PlaIsComplement(ptr noundef %78)
  %80 = icmp ne i32 %79, 0
  br i1 %80, label %81, label %84

81:                                               ; preds = %77
  %82 = load i32, ptr %9, align 4, !tbaa !17
  %83 = call i32 @Abc_LitNot(i32 noundef %82)
  store i32 %83, ptr %9, align 4, !tbaa !17
  br label %84

84:                                               ; preds = %81, %77
  %85 = load i32, ptr %9, align 4, !tbaa !17
  call void @llvm.lifetime.end.p0(i64 8, ptr %12) #11
  call void @llvm.lifetime.end.p0(i64 4, ptr %11) #11
  call void @llvm.lifetime.end.p0(i64 4, ptr %10) #11
  call void @llvm.lifetime.end.p0(i64 4, ptr %9) #11
  call void @llvm.lifetime.end.p0(i64 4, ptr %8) #11
  call void @llvm.lifetime.end.p0(i64 4, ptr %7) #11
  ret i32 %85
}