; Function Attrs: nounwind uwtable
define i32 @Gia_ManSopToAig(ptr noundef %0, ptr noundef %1, ptr noundef readonly captures(none) %2) local_unnamed_addr #0 {
  %4 = tail call i32 @Kit_PlaGetVarNum(ptr noundef %1) #18
  %5 = load i8, ptr %1, align 1, !tbaa !14
  %.not34 = icmp eq i8 %5, 0
  br i1 %.not34, label %._crit_edge, label %.preheader.lr.ph

.preheader.lr.ph:                                 ; preds = %3
  %6 = getelementptr i8, ptr %2, i64 8
  %7 = sext i32 %4 to i64
  br label %.preheader

.preheader:                                       ; preds = %.preheader.lr.ph, %.critedge
  %8 = phi i8 [ %5, %.preheader.lr.ph ], [ %23, %.critedge ]
  %.036 = phi ptr [ %1, %.preheader.lr.ph ], [ %22, %.critedge ]
  %.02735 = phi i32 [ 0, %.preheader.lr.ph ], [ %20, %.critedge ]
  br label %9

9:                                                ; preds = %.preheader, %19
  %10 = phi i8 [ %8, %.preheader ], [ %.pre, %19 ]
  %indvars.iv = phi i64 [ 0, %.preheader ], [ %indvars.iv.next, %19 ]
  %.026 = phi i32 [ 1, %.preheader ], [ %.1, %19 ]
  switch i8 %10, label %19 [
    i8 32, label %.critedge
    i8 0, label %.critedge
    i8 49, label %11
    i8 48, label %14
  ]

11:                                               ; preds = %9
  %.val = load ptr, ptr %6, align 8, !tbaa !17
  %12 = getelementptr inbounds nuw i32, ptr %.val, i64 %indvars.iv
  %13 = load i32, ptr %12, align 4, !tbaa !20
  br label %.sink.split

14:                                               ; preds = %9
  %.val33 = load ptr, ptr %6, align 8, !tbaa !17
  %15 = getelementptr inbounds nuw i32, ptr %.val33, i64 %indvars.iv
  %16 = load i32, ptr %15, align 4, !tbaa !20
  %17 = xor i32 %16, 1
  br label %.sink.split

.sink.split:                                      ; preds = %14, %11
  %.sink = phi i32 [ %13, %11 ], [ %17, %14 ]
  %18 = tail call i32 @Gia_ManHashAnd(ptr noundef %0, i32 noundef %.026, i32 noundef %.sink) #18
  br label %19

19:                                               ; preds = %.sink.split, %9
  %.1 = phi i32 [ %.026, %9 ], [ %18, %.sink.split ]
  %indvars.iv.next = add nuw nsw i64 %indvars.iv, 1
  %.phi.trans.insert = getelementptr inbounds nuw i8, ptr %.036, i64 %indvars.iv.next
  %.pre = load i8, ptr %.phi.trans.insert, align 1, !tbaa !14
  br label %9, !llvm.loop !21

.critedge:                                        ; preds = %9, %9
  %20 = tail call i32 @Gia_ManHashOr(ptr noundef %0, i32 noundef %.02735, i32 noundef %.026) #18
  %21 = getelementptr i8, ptr %.036, i64 %7
  %22 = getelementptr i8, ptr %21, i64 3
  %23 = load i8, ptr %22, align 1, !tbaa !14
  %.not = icmp eq i8 %23, 0
  br i1 %.not, label %._crit_edge, label %.preheader, !llvm.loop !22

._crit_edge:                                      ; preds = %.critedge, %3
  %.027.lcssa = phi i32 [ 0, %3 ], [ %20, %.critedge ]
  %24 = tail call i32 @Kit_PlaIsComplement(ptr noundef nonnull %1) #18
  %.not30 = icmp ne i32 %24, 0
  %25 = zext i1 %.not30 to i32
  %spec.select = xor i32 %.027.lcssa, %25
  ret i32 %spec.select
}